target datalayout = "e-m:e-p270:32:32-p271:32:32-p272:64:64-i64:64-i128:128-f80:128-n8:16:32:64-S128"
target triple = "x86_64-pc-linux-gnu"

%struct.cli_ctx_tag = type { ptr, ptr, ptr, ptr, ptr, ptr, ptr, i64, ptr, i32, i32, ptr, i32, i32, ptr, [16 x i8], ptr, ptr, ptr, ptr, ptr, ptr, %struct.timeval, i8, i8 }
%struct.timeval = type { i64, i64 }
%struct.cl_fmap = type { ptr, ptr, ptr, i64, i64, i64, i64, i8, i8, i8, i64, i64, i64, i64, ptr, ptr, ptr, ptr, ptr, ptr, ptr, i8, [16 x i8], i8, [20 x i8], i8, [32 x i8], ptr, ptr }

@.str = private unnamed_addr constant [52 x i8] c"HWPOLE2: Failed to read uncompressed ole2 filesize\0A\00", align 1
@.str.1 = private unnamed_addr constant [60 x i8] c"HWPOLE2: Mismatched uncompressed prefix and size: %u != %u\0A\00", align 1
@.str.2 = private unnamed_addr constant [57 x i8] c"HWPOLE2: Matched uncompressed prefix and size: %u == %u\0A\00", align 1

; Function Attrs: inlinehint nounwind uwtable
define internal ptr @fmap_need_off_once(ptr noundef %0, i64 noundef %1, i64 noundef %2) #2 {
  %4 = alloca ptr, align 8
  %5 = alloca i64, align 8
  %6 = alloca i64, align 8
  store ptr %0, ptr %4, align 8, !tbaa !25
  store i64 %1, ptr %5, align 8, !tbaa !30
  store i64 %2, ptr %6, align 8, !tbaa !30
  %7 = load ptr, ptr %4, align 8, !tbaa !25
  %8 = getelementptr inbounds nuw %struct.cl_fmap, ptr %7, i32 0, i32 15
  %9 = load ptr, ptr %8, align 8, !tbaa !103
  %10 = load ptr, ptr %4, align 8, !tbaa !25
  %11 = load i64, ptr %5, align 8, !tbaa !30
  %12 = load i64, ptr %6, align 8, !tbaa !30
  %13 = call ptr %9(ptr noundef %10, i64 noundef %11, i64 noundef %12, i32 noundef 0)
  ret ptr %13
}

; Function Attrs: inlinehint nounwind uwtable
define internal i64 @fmap_readn(ptr noundef %0, ptr noundef %1, i64 noundef %2, i64 noundef %3) #2 {
  %5 = alloca i64, align 8
  %6 = alloca ptr, align 8
  %7 = alloca ptr, align 8
  %8 = alloca i64, align 8
  %9 = alloca i64, align 8
  %10 = alloca ptr, align 8
  %11 = alloca i32, align 4
  store ptr %0, ptr %6, align 8, !tbaa !25
  store ptr %1, ptr %7, align 8, !tbaa !29
  store i64 %2, ptr %8, align 8, !tbaa !30
  store i64 %3, ptr %9, align 8, !tbaa !30
  call void @llvm.lifetime.start.p0(i64 8, ptr %10) #8
  %12 = load i64, ptr %8, align 8, !tbaa !30
  %13 = load ptr, ptr %6, align 8, !tbaa !25
  %14 = getelementptr inbounds nuw %struct.cl_fmap, ptr %13, i32 0, i32 13
  %15 = load i64, ptr %14, align 8, !tbaa !26
  %16 = icmp eq i64 %12, %15
  br i1 %16, label %20, label %17

17:                                               ; preds = %4
  %18 = load i64, ptr %9, align 8, !tbaa !30
  %19 = icmp ne i64 %18, 0
  br i1 %19, label %21, label %20

20:                                               ; preds = %17, %4
  store i64 0, ptr %5, align 8
  store i32 1, ptr %11, align 4
  br label %61

21:                                               ; preds = %17
  %22 = load i64, ptr %8, align 8, !tbaa !30
  %23 = load ptr, ptr %6, align 8, !tbaa !25
  %24 = getelementptr inbounds nuw %struct.cl_fmap, ptr %23, i32 0, i32 13
  %25 = load i64, ptr %24, align 8, !tbaa !26
  %26 = icmp ugt i64 %22, %25
  br i1 %26, label %27, label %28

27:                                               ; preds = %21
  store i64 -1, ptr %5, align 8
  store i32 1, ptr %11, align 4
  br label %61

28:                                               ; preds = %21
  %29 = load i64, ptr %9, align 8, !tbaa !30
  %30 = load ptr, ptr %6, align 8, !tbaa !25
  %31 = getelementptr inbounds nuw %struct.cl_fmap, ptr %30, i32 0, i32 13
  %32 = load i64, ptr %31, align 8, !tbaa !26
  %33 = load i64, ptr %8, align 8, !tbaa !30
  %34 = sub i64 %32, %33
  %35 = icmp ugt i64 %29, %34
  br i1 %35, label %36, label %42

36:                                               ; preds = %28
  %37 = load ptr, ptr %6, align 8, !tbaa !25
  %38 = getelementptr inbounds nuw %struct.cl_fmap, ptr %37, i32 0, i32 13
  %39 = load i64, ptr %38, align 8, !tbaa !26
  %40 = load i64, ptr %8, align 8, !tbaa !30
  %41 = sub i64 %39, %40
  store i64 %41, ptr %9, align 8, !tbaa !30
  br label %42

42:                                               ; preds = %36, %28
  %43 = load ptr, ptr %6, align 8, !tbaa !25
  %44 = load i64, ptr %8, align 8, !tbaa !30
  %45 = load i64, ptr %9, align 8, !tbaa !30
  %46 = call ptr @fmap_need_off_once(ptr noundef %43, i64 noundef %44, i64 noundef %45)
  store ptr %46, ptr %10, align 8, !tbaa !29
  %47 = load ptr, ptr %10, align 8, !tbaa !29
  %48 = icmp ne ptr %47, null
  br i1 %48, label %50, label %49

49:                                               ; preds = %42
  store i64 -1, ptr %5, align 8
  store i32 1, ptr %11, align 4
  br label %61

50:                                               ; preds = %42
  %51 = load ptr, ptr %7, align 8, !tbaa !29
  %52 = load ptr, ptr %10, align 8, !tbaa !29
  %53 = load i64, ptr %9, align 8, !tbaa !30
  call void @llvm.memcpy.p0.p0.i64(ptr align 1 %51, ptr align 1 %52, i64 %53, i1 false)
  %54 = load i64, ptr %9, align 8, !tbaa !30
  %55 = icmp ule i64 %54, 2147483647
  br i1 %55, label %56, label %58

56:                                               ; preds = %50
  %57 = load i64, ptr %9, align 8, !tbaa !30
  br label %59

58:                                               ; preds = %50
  br label %59

59:                                               ; preds = %58, %56
  %60 = phi i64 [ %57, %56 ], [ -1, %58 ]
  store i64 %60, ptr %5, align 8
  store i32 1, ptr %11, align 4
  br label %61

61:                                               ; preds = %59, %49, %27, %20
  call void @llvm.lifetime.end.p0(i64 8, ptr %10) #8
  %62 = load i64, ptr %5, align 8
  ret i64 %62
}

; Function Attrs: nounwind uwtable
define i32 @cli_scanhwpole2(ptr noundef %0) #0 {
  %2 = alloca i32, align 4
  %3 = alloca ptr, align 8
  %4 = alloca ptr, align 8
  %5 = alloca i32, align 4
  %6 = alloca i32, align 4
  %7 = alloca i32, align 4
  store ptr %0, ptr %3, align 8, !tbaa !3
  call void @llvm.lifetime.start.p0(i64 8, ptr %4) #8
  %8 = load ptr, ptr %3, align 8, !tbaa !3
  %9 = getelementptr inbounds nuw %struct.cli_ctx_tag, ptr %8, i32 0, i32 14
  %10 = load ptr, ptr %9, align 8, !tbaa !8
  store ptr %10, ptr %4, align 8, !tbaa !25
  call void @llvm.lifetime.start.p0(i64 4, ptr %5) #8
  call void @llvm.lifetime.start.p0(i64 4, ptr %6) #8
  %11 = load ptr, ptr %4, align 8, !tbaa !25
  %12 = getelementptr inbounds nuw %struct.cl_fmap, ptr %11, i32 0, i32 13
  %13 = load i64, ptr %12, align 8, !tbaa !26
  %14 = sub i64 %13, 4
  %15 = trunc i64 %14 to i32
  store i32 %15, ptr %6, align 4, !tbaa !28
  %16 = load ptr, ptr %4, align 8, !tbaa !25
  %17 = call i64 @fmap_readn(ptr noundef %16, ptr noundef %5, i64 noundef 0, i64 noundef 4)
  %18 = icmp ne i64 %17, 4
  br i1 %18, label %19, label %20

19:                                               ; preds = %1
  call void (ptr, ...) @cli_errmsg(ptr noundef @.str)
  store i32 12, ptr %2, align 4
  store i32 1, ptr %7, align 4
  br label %34

20:                                               ; preds = %1
  %21 = load i32, ptr %5, align 4, !tbaa !28
  %22 = load i32, ptr %6, align 4, !tbaa !28
  %23 = icmp ne i32 %21, %22
  br i1 %23, label %24, label %27

24:                                               ; preds = %20
  %25 = load i32, ptr %5, align 4, !tbaa !28
  %26 = load i32, ptr %6, align 4, !tbaa !28
  call void (ptr, ...) @cli_warnmsg(ptr noundef @.str.1, i32 noundef %25, i32 noundef %26)
  br label %30

27:                                               ; preds = %20
  %28 = load i32, ptr %5, align 4, !tbaa !28
  %29 = load i32, ptr %6, align 4, !tbaa !28
  call void (ptr, ...) @cli_dbgmsg(ptr noundef @.str.2, i32 noundef %28, i32 noundef %29)
  br label %30

30:                                               ; preds = %27, %24
  %31 = load ptr, ptr %4, align 8, !tbaa !25
  %32 = load ptr, ptr %3, align 8, !tbaa !3
  %33 = call i32 @cli_magic_scan_nested_fmap_type(ptr noundef %31, i64 noundef 4, i64 noundef 0, ptr noundef %32, i32 noundef 0, ptr noundef null, i32 noundef 0)
  store i32 %33, ptr %2, align 4
  store i32 1, ptr %7, align 4
  br label %34

34:                                               ; preds = %30, %19
  call void @llvm.lifetime.end.p0(i64 4, ptr %6) #8
  call void @llvm.lifetime.end.p0(i64 4, ptr %5) #8
  call void @llvm.lifetime.end.p0(i64 8, ptr %4) #8
  %35 = load i32, ptr %2, align 4
  ret i32 %35
}