; Function Attrs: nounwind uwtable
define i32 @cli_scanhwpole2(ptr noundef %0) local_unnamed_addr #0 {
  %2 = alloca i32, align 4
  %3 = getelementptr inbounds nuw i8, ptr %0, i64 96
  %4 = load ptr, ptr %3, align 8, !tbaa !3
  call void @llvm.lifetime.start.p0(i64 4, ptr nonnull %2)
  %5 = getelementptr inbounds nuw i8, ptr %4, i64 88
  %6 = load i64, ptr %5, align 8, !tbaa !23
  %7 = trunc i64 %6 to i32
  %8 = add i32 %7, -4
  %.not.i = icmp eq i64 %6, 0
  br i1 %.not.i, label %fmap_readn.exit.thread, label %9

9:                                                ; preds = %1
  %spec.select.i = tail call i64 @llvm.umin.i64(i64 %6, i64 4)
  %10 = getelementptr inbounds nuw i8, ptr %4, i64 104
  %11 = load ptr, ptr %10, align 8, !tbaa !25
  %12 = tail call ptr %11(ptr noundef nonnull %4, i64 noundef 0, i64 noundef %spec.select.i, i32 noundef 0) #10
  %.not26.i = icmp eq ptr %12, null
  br i1 %.not26.i, label %fmap_readn.exit.thread, label %fmap_readn.exit

fmap_readn.exit:                                  ; preds = %9
  call void @llvm.memcpy.p0.p0.i64(ptr nonnull align 4 %2, ptr nonnull align 1 %12, i64 %spec.select.i, i1 false)
  %.not = icmp ugt i64 %6, 3
  br i1 %.not, label %13, label %fmap_readn.exit.thread

fmap_readn.exit.thread:                           ; preds = %9, %1, %fmap_readn.exit
  tail call void (ptr, ...) @cli_errmsg(ptr noundef nonnull @.str) #10
  br label %18

13:                                               ; preds = %fmap_readn.exit
  %.0..0..0. = load i32, ptr %2, align 4, !tbaa !26
  %.not11 = icmp eq i32 %.0..0..0., %8
  br i1 %.not11, label %15, label %14

14:                                               ; preds = %13
  tail call void (ptr, ...) @cli_warnmsg(ptr noundef nonnull @.str.1, i32 noundef %.0..0..0., i32 noundef %8) #10
  br label %16

15:                                               ; preds = %13
  tail call void (ptr, ...) @cli_dbgmsg(ptr noundef nonnull @.str.2, i32 noundef %8, i32 noundef %8) #10
  br label %16

16:                                               ; preds = %15, %14
  %17 = tail call i32 @cli_magic_scan_nested_fmap_type(ptr noundef nonnull %4, i64 noundef 4, i64 noundef 0, ptr noundef nonnull %0, i32 noundef 0, ptr noundef null, i32 noundef 0) #10
  br label %18

18:                                               ; preds = %16, %fmap_readn.exit.thread
  %.0 = phi i32 [ 12, %fmap_readn.exit.thread ], [ %17, %16 ]
  call void @llvm.lifetime.end.p0(i64 4, ptr nonnull %2)
  ret i32 %.0
}